; Function Attrs: nounwind uwtable
define noundef ptr @ggml_gelu_quick(ptr noundef captures(none) %0, ptr noundef %1) local_unnamed_addr #4 {
  %3 = load i32, ptr %1, align 8, !tbaa !40
  %4 = zext i32 %3 to i64
  %5 = getelementptr inbounds nuw [39 x %struct.ggml_type_traits], ptr @type_traits, i64 0, i64 %4, i32 3
  %6 = load i64, ptr %5, align 8, !tbaa !47
  %7 = getelementptr inbounds nuw i8, ptr %1, i64 16
  %8 = load i64, ptr %7, align 8, !tbaa !39
  %9 = getelementptr inbounds nuw [39 x %struct.ggml_type_traits], ptr @type_traits, i64 0, i64 %4, i32 1
  %10 = load i64, ptr %9, align 8, !tbaa !44
  %.not.i.i.i.i = icmp eq i64 %8, %10
  br i1 %.not.i.i.i.i, label %14, label %11

11:                                               ; preds = %2
  %12 = getelementptr inbounds nuw i8, ptr %1, i64 48
  %13 = load i64, ptr %12, align 8, !tbaa !39
  %.not30.i.i.i.i = icmp eq i64 %13, %6
  br i1 %.not30.i.i.i.i, label %14, label %.loopexit.i.i

14:                                               ; preds = %11, %2
  %15 = sdiv i64 %8, %10
  %16 = mul i64 %15, %6
  %17 = getelementptr inbounds nuw i8, ptr %1, i64 48
  br label %18

18:                                               ; preds = %30, %14
  %indvars.iv.i.i.i.i = phi i64 [ 1, %14 ], [ %indvars.iv.next.i.i.i.i, %30 ]
  %.02633.i.i.i.i = phi i64 [ %16, %14 ], [ %.1.i.i.i.i, %30 ]
  %19 = getelementptr inbounds nuw [4 x i64], ptr %7, i64 0, i64 %indvars.iv.i.i.i.i
  %20 = load i64, ptr %19, align 8, !tbaa !39
  %.not31.i.i.i.i = icmp eq i64 %20, 1
  br i1 %.not31.i.i.i.i, label %30, label %21

21:                                               ; preds = %18
  %22 = icmp samesign ugt i64 %indvars.iv.i.i.i.i, 1
  %23 = getelementptr inbounds nuw [4 x i64], ptr %17, i64 0, i64 %indvars.iv.i.i.i.i
  %24 = load i64, ptr %23, align 8, !tbaa !39
  br i1 %22, label %25, label %28

25:                                               ; preds = %21
  %.not32.i.i.i.i = icmp eq i64 %24, %.02633.i.i.i.i
  br i1 %.not32.i.i.i.i, label %26, label %.loopexit.i.i

26:                                               ; preds = %25
  %27 = mul i64 %20, %.02633.i.i.i.i
  br label %30

28:                                               ; preds = %21
  %29 = mul i64 %24, %20
  br label %30

30:                                               ; preds = %28, %26, %18
  %.1.i.i.i.i = phi i64 [ %27, %26 ], [ %29, %28 ], [ %.02633.i.i.i.i, %18 ]
  %indvars.iv.next.i.i.i.i = add nuw nsw i64 %indvars.iv.i.i.i.i, 1
  %exitcond.i.i.i.i = icmp eq i64 %indvars.iv.next.i.i.i.i, 4
  br i1 %exitcond.i.i.i.i, label %ggml_unary.exit, label %18, !llvm.loop !57

.loopexit.i.i:                                    ; preds = %25, %11
  tail call void (ptr, i32, ptr, ...) @ggml_abort(ptr noundef nonnull @.str.12, i32 noundef 4729, ptr noundef nonnull @.str.13, ptr noundef nonnull @.str.485) #47
  unreachable

ggml_unary.exit:                                  ; preds = %30
  %31 = tail call fastcc noundef ptr @ggml_new_tensor_impl(ptr noundef %0, i32 noundef %3, i32 noundef 4, ptr noundef nonnull readonly %7, ptr noundef null, i64 noundef 0)
  %32 = getelementptr inbounds nuw i8, ptr %31, i64 84
  store i32 9, ptr %32, align 4, !tbaa !8
  %33 = getelementptr inbounds nuw i8, ptr %31, i64 80
  store i32 71, ptr %33, align 8, !tbaa !55
  %34 = getelementptr inbounds nuw i8, ptr %31, i64 152
  store ptr %1, ptr %34, align 8, !tbaa !81
  ret ptr %31
}